; Function Attrs: mustprogress uwtable
define dso_local void @_ZN5ImGui12TableEndCellEP10ImGuiTable(ptr noundef captures(none) %0) local_unnamed_addr #0 {
  %2 = getelementptr inbounds nuw i8, ptr %0, i64 24
  %3 = getelementptr inbounds nuw i8, ptr %0, i64 116
  %4 = load i32, ptr %3, align 4, !tbaa !242
  %5 = load ptr, ptr %2, align 8, !tbaa !271
  %6 = sext i32 %4 to i64
  %7 = getelementptr inbounds %struct.ImGuiTableColumn, ptr %5, i64 %6
  %8 = getelementptr inbounds nuw i8, ptr %0, i64 392
  %9 = load ptr, ptr %8, align 8, !tbaa !205
  %10 = getelementptr inbounds nuw i8, ptr %9, i64 345
  %11 = load i8, ptr %10, align 1, !tbaa !482, !range !152, !noundef !153
  %12 = trunc nuw i8 %11 to i1
  br i1 %12, label %13, label %14

13:                                               ; preds = %1
  tail call void @_ZN5ImGui51ErrorCheckUsingSetCursorPosToExtendParentBoundariesEv()
  br label %14

14:                                               ; preds = %13, %1
  %15 = getelementptr inbounds nuw i8, ptr %0, i64 148
  %16 = load i32, ptr %15, align 4
  %17 = and i32 %16, 1
  %.not = icmp eq i32 %17, 0
  br i1 %.not, label %18, label %22

18:                                               ; preds = %14
  %19 = getelementptr inbounds nuw i8, ptr %0, i64 578
  %20 = load i8, ptr %19, align 2, !tbaa !251, !range !152, !noundef !153
  %21 = trunc nuw i8 %20 to i1
  %.v = select i1 %21, i64 72, i64 68
  br label %22

22:                                               ; preds = %14, %18
  %.v.sink = phi i64 [ %.v, %18 ], [ 76, %14 ]
  %23 = getelementptr inbounds nuw i8, ptr %7, i64 %.v.sink
  %24 = load float, ptr %23, align 4, !tbaa !216
  %25 = getelementptr inbounds nuw i8, ptr %9, i64 304
  %26 = load float, ptr %25, align 8, !tbaa !461
  %27 = fcmp oge float %24, %26
  %28 = select i1 %27, float %24, float %26
  store float %28, ptr %23, align 4, !tbaa !216
  %29 = getelementptr inbounds nuw i8, ptr %7, i64 102
  %30 = load i8, ptr %29, align 2, !tbaa !307, !range !152, !noundef !153
  %31 = trunc nuw i8 %30 to i1
  br i1 %31, label %32, label %42

32:                                               ; preds = %22
  %33 = getelementptr inbounds nuw i8, ptr %0, i64 128
  %34 = load float, ptr %33, align 8, !tbaa !247
  %35 = getelementptr inbounds nuw i8, ptr %9, i64 308
  %36 = load float, ptr %35, align 4, !tbaa !458
  %37 = getelementptr inbounds nuw i8, ptr %0, i64 136
  %38 = load float, ptr %37, align 8, !tbaa !250
  %39 = fadd float %36, %38
  %40 = fcmp oge float %34, %39
  %41 = select i1 %40, float %34, float %39
  store float %41, ptr %33, align 8, !tbaa !247
  br label %42

42:                                               ; preds = %32, %22
  %43 = getelementptr inbounds nuw i8, ptr %9, i64 472
  %44 = load float, ptr %43, align 8, !tbaa !227
  %45 = getelementptr inbounds nuw i8, ptr %7, i64 64
  store float %44, ptr %45, align 4, !tbaa !402
  %46 = getelementptr inbounds nuw i8, ptr %0, i64 140
  %47 = load float, ptr %46, align 4, !tbaa !249
  %48 = getelementptr inbounds nuw i8, ptr %9, i64 340
  %49 = load float, ptr %48, align 4, !tbaa !483
  %50 = fcmp oge float %47, %49
  %51 = select i1 %50, float %47, float %49
  store float %51, ptr %46, align 4, !tbaa !249
  ret void
}